target datalayout = "e-m:e-p270:32:32-p271:32:32-p272:64:64-i64:64-i128:128-f80:128-n8:16:32:64-S128"
target triple = "x86_64-pc-linux-gnu"

; Function Attrs: nounwind uwtable
define dso_local void @makeHypercube(i32 noundef %0, ptr noundef %1) #0 {
  %3 = alloca i32, align 4
  %4 = alloca ptr, align 8
  %5 = alloca i32, align 4
  %6 = alloca i32, align 4
  %7 = alloca i32, align 4
  %8 = alloca i32, align 4
  %9 = alloca i32, align 4
  store i32 %0, ptr %3, align 4, !tbaa !4
  store ptr %1, ptr %4, align 8, !tbaa !8
  call void @llvm.lifetime.start.p0(i64 4, ptr %5) #11
  %10 = load i32, ptr %3, align 4, !tbaa !4
  %11 = shl i32 1, %10
  store i32 %11, ptr %5, align 4, !tbaa !4
  call void @llvm.lifetime.start.p0(i64 4, ptr %6) #11
  store i32 0, ptr %6, align 4, !tbaa !4
  br label %12

12:                                               ; preds = %42, %2
  %13 = load i32, ptr %6, align 4, !tbaa !4
  %14 = load i32, ptr %5, align 4, !tbaa !4
  %15 = icmp ult i32 %13, %14
  br i1 %15, label %17, label %16

16:                                               ; preds = %12
  store i32 2, ptr %7, align 4
  call void @llvm.lifetime.end.p0(i64 4, ptr %6) #11
  br label %45

17:                                               ; preds = %12
  call void @llvm.lifetime.start.p0(i64 4, ptr %8) #11
  store i32 0, ptr %8, align 4, !tbaa !4
  br label %18

18:                                               ; preds = %38, %17
  %19 = load i32, ptr %8, align 4, !tbaa !4
  %20 = load i32, ptr %3, align 4, !tbaa !4
  %21 = icmp ult i32 %19, %20
  br i1 %21, label %23, label %22

22:                                               ; preds = %18
  store i32 5, ptr %7, align 4
  call void @llvm.lifetime.end.p0(i64 4, ptr %8) #11
  br label %41

23:                                               ; preds = %18
  call void @llvm.lifetime.start.p0(i64 4, ptr %9) #11
  %24 = load i32, ptr %6, align 4, !tbaa !4
  %25 = load i32, ptr %8, align 4, !tbaa !4
  %26 = shl i32 1, %25
  %27 = xor i32 %24, %26
  %28 = add i32 %27, 1
  store i32 %28, ptr %9, align 4, !tbaa !4
  %29 = load i32, ptr %6, align 4, !tbaa !4
  %30 = load i32, ptr %9, align 4, !tbaa !4
  %31 = icmp ult i32 %29, %30
  br i1 %31, label %32, label %37

32:                                               ; preds = %23
  %33 = load ptr, ptr %4, align 8, !tbaa !8
  %34 = load i32, ptr %6, align 4, !tbaa !4
  %35 = add i32 %34, 1
  %36 = load i32, ptr %9, align 4, !tbaa !4
  call void %33(i32 noundef %35, i32 noundef %36)
  br label %37

37:                                               ; preds = %32, %23
  call void @llvm.lifetime.end.p0(i64 4, ptr %9) #11
  br label %38

38:                                               ; preds = %37
  %39 = load i32, ptr %8, align 4, !tbaa !4
  %40 = add i32 %39, 1
  store i32 %40, ptr %8, align 4, !tbaa !4
  br label %18, !llvm.loop !51

41:                                               ; preds = %22
  br label %42

42:                                               ; preds = %41
  %43 = load i32, ptr %6, align 4, !tbaa !4
  %44 = add i32 %43, 1
  store i32 %44, ptr %6, align 4, !tbaa !4
  br label %12, !llvm.loop !52

45:                                               ; preds = %16
  call void @llvm.lifetime.end.p0(i64 4, ptr %5) #11
  ret void
}