; Function Attrs: nounwind uwtable
define dso_local void @makeHypercube(i32 noundef %0, ptr noundef readonly captures(none) %1) local_unnamed_addr #0 {
  %.not = icmp eq i32 %0, 0
  br i1 %.not, label %.split18.us, label %.preheader.us

.preheader.us:                                    ; preds = %2, %._crit_edge.us
  %.016.us = phi i32 [ %3, %._crit_edge.us ], [ 0, %2 ]
  %3 = add i32 %.016.us, 1
  br label %4

4:                                                ; preds = %.preheader.us, %10
  %.01315.us = phi i32 [ 0, %.preheader.us ], [ %11, %10 ]
  %5 = shl nuw i32 1, %.01315.us
  %6 = xor i32 %5, %.016.us
  %7 = add i32 %6, 1
  %8 = icmp ult i32 %.016.us, %7
  br i1 %8, label %9, label %10

9:                                                ; preds = %4
  tail call void %1(i32 noundef %3, i32 noundef %7) #15
  br label %10

10:                                               ; preds = %9, %4
  %11 = add nuw i32 %.01315.us, 1
  %exitcond.not = icmp eq i32 %11, %0
  br i1 %exitcond.not, label %._crit_edge.us, label %4, !llvm.loop !45

._crit_edge.us:                                   ; preds = %10
  %.0.highbits.us = lshr i32 %3, %0
  %12 = icmp eq i32 %.0.highbits.us, 0
  br i1 %12, label %.preheader.us, label %.split18.us, !llvm.loop !46

.split18.us:                                      ; preds = %._crit_edge.us, %2
  ret void
}